; Function Attrs: mustprogress nofree norecurse nosync nounwind memory(readwrite, inaccessiblemem: none) uwtable
define hidden void @_ZN3sls12bv_valuation16set_random_aboveERNS_5bvectER10random_gen(ptr noundef nonnull readonly align 8 captures(none) dereferenceable(184) %0, ptr noundef nonnull readonly align 8 captures(none) dereferenceable(20) %1, ptr noundef nonnull align 4 captures(none) dereferenceable(4) %2) local_unnamed_addr #10 align 2 {
  %4 = getelementptr inbounds nuw i8, ptr %0, i64 156
  %5 = load i32, ptr %4, align 4, !tbaa !68
  %.not = icmp eq i32 %5, 0
  br i1 %.not, label %._crit_edge, label %.lr.ph

.lr.ph:                                           ; preds = %3
  %6 = load ptr, ptr %1, align 8, !tbaa !14
  %7 = getelementptr inbounds nuw i8, ptr %0, i64 72
  %8 = load ptr, ptr %7, align 8, !tbaa !14
  br label %9

._crit_edge:                                      ; preds = %_ZN3sls12bv_valuation11random_bitsER10random_gen.exit, %3
  tail call void @_ZNK3sls12bv_valuation16repair_sign_bitsERNS_5bvectE(ptr noundef nonnull align 8 dereferenceable(184) %0, ptr noundef nonnull align 8 dereferenceable(20) %1)
  ret void

9:                                                ; preds = %.lr.ph, %_ZN3sls12bv_valuation11random_bitsER10random_gen.exit
  %indvars.iv = phi i64 [ 0, %.lr.ph ], [ %indvars.iv.next, %_ZN3sls12bv_valuation11random_bitsER10random_gen.exit ]
  %10 = getelementptr inbounds nuw i32, ptr %6, i64 %indvars.iv
  %11 = load i32, ptr %10, align 4, !tbaa !15
  %.promoted.i = load i32, ptr %2, align 4, !tbaa !83
  br label %12

12:                                               ; preds = %12, %9
  %.07.i = phi i32 [ 0, %9 ], [ %21, %12 ]
  %.056.i = phi i32 [ 0, %9 ], [ %20, %12 ]
  %13 = phi i32 [ %.promoted.i, %9 ], [ %15, %12 ]
  %14 = mul i32 %13, 214013
  %15 = add i32 %14, 2531011
  %16 = lshr i32 %15, 16
  %17 = and i32 %16, 32767
  %18 = shl nuw nsw i32 %.07.i, 3
  %19 = shl i32 %17, %18
  %20 = xor i32 %19, %.056.i
  %21 = add nuw nsw i32 %.07.i, 1
  %exitcond.not.i = icmp eq i32 %21, 4
  br i1 %exitcond.not.i, label %_ZN3sls12bv_valuation11random_bitsER10random_gen.exit, label %12, !llvm.loop !89

_ZN3sls12bv_valuation11random_bitsER10random_gen.exit: ; preds = %12
  store i32 %15, ptr %2, align 4, !tbaa !83
  %22 = getelementptr inbounds nuw i32, ptr %8, i64 %indvars.iv
  %23 = load i32, ptr %22, align 4, !tbaa !15
  %24 = xor i32 %23, -1
  %25 = and i32 %20, %24
  %26 = or i32 %25, %11
  store i32 %26, ptr %10, align 4, !tbaa !15
  %indvars.iv.next = add nuw nsw i64 %indvars.iv, 1
  %27 = load i32, ptr %4, align 4, !tbaa !68
  %28 = zext i32 %27 to i64
  %29 = icmp samesign ult i64 %indvars.iv.next, %28
  br i1 %29, label %9, label %._crit_edge, !llvm.loop !90
}